target datalayout = "e-m:e-p270:32:32-p271:32:32-p272:64:64-i64:64-i128:128-f80:128-n8:16:32:64-S128"
target triple = "x86_64-pc-linux-gnu"

%struct.VLCLUT = type { i8, i16 }

@uni_h261_rl_len = internal global [8192 x i8] zeroinitializer, align 16
@uni_h261_rl_len_last = internal global [8192 x i8] zeroinitializer, align 16
@h261_mv_codes = internal global [64 x [2 x i8]] zeroinitializer, align 16
@vlc_lut = internal global [27 x [32 x %struct.VLCLUT]] zeroinitializer, align 16
@ff_h261_tcoeff_run = external constant [64 x i8], align 16
@ff_h261_tcoeff_level = external constant [64 x i8], align 16
@ff_h261_tcoeff_vlc = external constant [65 x [2 x i16]], align 16
@ff_h261_mv_tab = external constant [17 x [2 x i8]], align 16

; Function Attrs: cold nounwind optsize uwtable
define internal void @h261_encode_init_static() #4 {
  %1 = alloca ptr, align 8
  %2 = alloca i64, align 8
  %3 = alloca i32, align 4
  %4 = alloca i32, align 4
  %5 = alloca i32, align 4
  %6 = alloca i32, align 4
  %7 = alloca %struct.VLCLUT, align 2
  %8 = alloca %struct.VLCLUT, align 2
  %9 = alloca i64, align 8
  call void @llvm.lifetime.start.p0(i64 8, ptr %1) #8
  store ptr getelementptr inbounds ([2 x i8], ptr @h261_mv_codes, i64 32), ptr %1, align 8, !tbaa !67
  call void @llvm.memset.p0.i64(ptr align 16 @uni_h261_rl_len, i8 20, i64 8192, i1 false)
  call void @llvm.memset.p0.i64(ptr align 16 @uni_h261_rl_len_last, i8 22, i64 8192, i1 false)
  call void @llvm.lifetime.start.p0(i64 8, ptr %2) #8
  store i64 1, ptr %2, align 8, !tbaa !117
  br label %10

10:                                               ; preds = %103, %0
  %11 = load i64, ptr %2, align 8, !tbaa !117
  %12 = icmp ult i64 %11, 64
  br i1 %12, label %14, label %13

13:                                               ; preds = %10
  call void @llvm.lifetime.end.p0(i64 8, ptr %2) #8
  br label %106

14:                                               ; preds = %10
  call void @llvm.lifetime.start.p0(i64 4, ptr %3) #8
  %15 = load i64, ptr %2, align 8, !tbaa !117
  %16 = getelementptr inbounds nuw [64 x i8], ptr @ff_h261_tcoeff_run, i64 0, i64 %15
  %17 = load i8, ptr %16, align 1, !tbaa !100
  %18 = sext i8 %17 to i32
  store i32 %18, ptr %3, align 4, !tbaa !51
  call void @llvm.lifetime.start.p0(i64 4, ptr %4) #8
  %19 = load i64, ptr %2, align 8, !tbaa !117
  %20 = getelementptr inbounds nuw [64 x i8], ptr @ff_h261_tcoeff_level, i64 0, i64 %19
  %21 = load i8, ptr %20, align 1, !tbaa !100
  %22 = sext i8 %21 to i32
  store i32 %22, ptr %4, align 4, !tbaa !51
  call void @llvm.lifetime.start.p0(i64 4, ptr %5) #8
  %23 = load i64, ptr %2, align 8, !tbaa !117
  %24 = getelementptr inbounds nuw [65 x [2 x i16]], ptr @ff_h261_tcoeff_vlc, i64 0, i64 %23
  %25 = getelementptr inbounds [2 x i16], ptr %24, i64 0, i64 1
  %26 = load i16, ptr %25, align 2, !tbaa !114
  %27 = zext i16 %26 to i32
  %28 = add nsw i32 %27, 1
  store i32 %28, ptr %5, align 4, !tbaa !51
  call void @llvm.lifetime.start.p0(i64 4, ptr %6) #8
  %29 = load i64, ptr %2, align 8, !tbaa !117
  %30 = getelementptr inbounds nuw [65 x [2 x i16]], ptr @ff_h261_tcoeff_vlc, i64 0, i64 %29
  %31 = getelementptr inbounds [2 x i16], ptr %30, i64 0, i64 0
  %32 = load i16, ptr %31, align 4, !tbaa !114
  %33 = zext i16 %32 to i32
  store i32 %33, ptr %6, align 4, !tbaa !51
  %34 = load i32, ptr %3, align 4, !tbaa !51
  %35 = zext i32 %34 to i64
  %36 = getelementptr inbounds nuw [27 x [32 x %struct.VLCLUT]], ptr @vlc_lut, i64 0, i64 %35
  %37 = load i32, ptr %4, align 4, !tbaa !51
  %38 = add i32 15, %37
  %39 = zext i32 %38 to i64
  %40 = getelementptr inbounds nuw [32 x %struct.VLCLUT], ptr %36, i64 0, i64 %39
  %41 = getelementptr inbounds nuw %struct.VLCLUT, ptr %7, i32 0, i32 0
  %42 = load i32, ptr %5, align 4, !tbaa !51
  %43 = trunc i32 %42 to i8
  store i8 %43, ptr %41, align 2, !tbaa !118
  %44 = getelementptr i8, ptr %7, i64 1
  call void @llvm.memset.p0.i64(ptr align 1 %44, i8 0, i64 1, i1 false)
  %45 = getelementptr inbounds nuw %struct.VLCLUT, ptr %7, i32 0, i32 1
  %46 = load i32, ptr %6, align 4, !tbaa !51
  %47 = shl i32 %46, 1
  %48 = trunc i32 %47 to i16
  store i16 %48, ptr %45, align 2, !tbaa !120
  call void @llvm.memcpy.p0.p0.i64(ptr align 4 %40, ptr align 2 %7, i64 4, i1 false), !tbaa.struct !121
  %49 = load i32, ptr %3, align 4, !tbaa !51
  %50 = zext i32 %49 to i64
  %51 = getelementptr inbounds nuw [27 x [32 x %struct.VLCLUT]], ptr @vlc_lut, i64 0, i64 %50
  %52 = load i32, ptr %4, align 4, !tbaa !51
  %53 = sub i32 15, %52
  %54 = zext i32 %53 to i64
  %55 = getelementptr inbounds nuw [32 x %struct.VLCLUT], ptr %51, i64 0, i64 %54
  %56 = getelementptr inbounds nuw %struct.VLCLUT, ptr %8, i32 0, i32 0
  %57 = load i32, ptr %5, align 4, !tbaa !51
  %58 = trunc i32 %57 to i8
  store i8 %58, ptr %56, align 2, !tbaa !118
  %59 = getelementptr i8, ptr %8, i64 1
  call void @llvm.memset.p0.i64(ptr align 1 %59, i8 0, i64 1, i1 false)
  %60 = getelementptr inbounds nuw %struct.VLCLUT, ptr %8, i32 0, i32 1
  %61 = load i32, ptr %6, align 4, !tbaa !51
  %62 = shl i32 %61, 1
  %63 = or i32 %62, 1
  %64 = trunc i32 %63 to i16
  store i16 %64, ptr %60, align 2, !tbaa !120
  call void @llvm.memcpy.p0.p0.i64(ptr align 4 %55, ptr align 2 %8, i64 4, i1 false), !tbaa.struct !121
  %65 = load i32, ptr %5, align 4, !tbaa !51
  %66 = trunc i32 %65 to i8
  %67 = load i32, ptr %3, align 4, !tbaa !51
  %68 = mul i32 %67, 128
  %69 = load i32, ptr %4, align 4, !tbaa !51
  %70 = add i32 64, %69
  %71 = add i32 %68, %70
  %72 = zext i32 %71 to i64
  %73 = getelementptr inbounds nuw [8192 x i8], ptr @uni_h261_rl_len, i64 0, i64 %72
  store i8 %66, ptr %73, align 1, !tbaa !100
  %74 = load i32, ptr %5, align 4, !tbaa !51
  %75 = trunc i32 %74 to i8
  %76 = load i32, ptr %3, align 4, !tbaa !51
  %77 = mul i32 %76, 128
  %78 = load i32, ptr %4, align 4, !tbaa !51
  %79 = sub i32 64, %78
  %80 = add i32 %77, %79
  %81 = zext i32 %80 to i64
  %82 = getelementptr inbounds nuw [8192 x i8], ptr @uni_h261_rl_len, i64 0, i64 %81
  store i8 %75, ptr %82, align 1, !tbaa !100
  %83 = load i32, ptr %5, align 4, !tbaa !51
  %84 = add i32 %83, 2
  %85 = trunc i32 %84 to i8
  %86 = load i32, ptr %3, align 4, !tbaa !51
  %87 = mul i32 %86, 128
  %88 = load i32, ptr %4, align 4, !tbaa !51
  %89 = add i32 64, %88
  %90 = add i32 %87, %89
  %91 = zext i32 %90 to i64
  %92 = getelementptr inbounds nuw [8192 x i8], ptr @uni_h261_rl_len_last, i64 0, i64 %91
  store i8 %85, ptr %92, align 1, !tbaa !100
  %93 = load i32, ptr %5, align 4, !tbaa !51
  %94 = add i32 %93, 2
  %95 = trunc i32 %94 to i8
  %96 = load i32, ptr %3, align 4, !tbaa !51
  %97 = mul i32 %96, 128
  %98 = load i32, ptr %4, align 4, !tbaa !51
  %99 = sub i32 64, %98
  %100 = add i32 %97, %99
  %101 = zext i32 %100 to i64
  %102 = getelementptr inbounds nuw [8192 x i8], ptr @uni_h261_rl_len_last, i64 0, i64 %101
  store i8 %95, ptr %102, align 1, !tbaa !100
  call void @llvm.lifetime.end.p0(i64 4, ptr %6) #8
  call void @llvm.lifetime.end.p0(i64 4, ptr %5) #8
  call void @llvm.lifetime.end.p0(i64 4, ptr %4) #8
  call void @llvm.lifetime.end.p0(i64 4, ptr %3) #8
  br label %103

103:                                              ; preds = %14
  %104 = load i64, ptr %2, align 8, !tbaa !117
  %105 = add i64 %104, 1
  store i64 %105, ptr %2, align 8, !tbaa !117
  br label %10, !llvm.loop !122

106:                                              ; preds = %13
  call void @llvm.lifetime.start.p0(i64 8, ptr %9) #8
  store i64 1, ptr %9, align 8, !tbaa !117
  br label %107

107:                                              ; preds = %171, %106
  %108 = load i64, ptr %9, align 8, !tbaa !117
  %109 = getelementptr inbounds [17 x [2 x i8]], ptr @ff_h261_mv_tab, i64 0, i64 %108
  %110 = getelementptr inbounds [2 x i8], ptr %109, i64 0, i64 0
  %111 = load i8, ptr %110, align 2, !tbaa !100
  %112 = zext i8 %111 to i32
  %113 = shl i32 %112, 1
  %114 = or i32 %113, 1
  %115 = trunc i32 %114 to i8
  %116 = load i64, ptr %9, align 8, !tbaa !117
  %117 = sub nsw i64 0, %116
  %118 = getelementptr inbounds [2 x i8], ptr getelementptr (i8, ptr @h261_mv_codes, i64 64), i64 %117
  %119 = getelementptr inbounds [2 x i8], ptr %118, i64 0, i64 0
  store i8 %115, ptr %119, align 1, !tbaa !100
  %120 = load i64, ptr %9, align 8, !tbaa !117
  %121 = sub nsw i64 32, %120
  %122 = getelementptr inbounds [2 x i8], ptr getelementptr (i8, ptr @h261_mv_codes, i64 64), i64 %121
  %123 = getelementptr inbounds [2 x i8], ptr %122, i64 0, i64 0
  store i8 %115, ptr %123, align 1, !tbaa !100
  %124 = load i64, ptr %9, align 8, !tbaa !117
  %125 = getelementptr inbounds [17 x [2 x i8]], ptr @ff_h261_mv_tab, i64 0, i64 %124
  %126 = getelementptr inbounds [2 x i8], ptr %125, i64 0, i64 1
  %127 = load i8, ptr %126, align 1, !tbaa !100
  %128 = zext i8 %127 to i32
  %129 = add nsw i32 %128, 1
  %130 = trunc i32 %129 to i8
  %131 = load i64, ptr %9, align 8, !tbaa !117
  %132 = sub nsw i64 0, %131
  %133 = getelementptr inbounds [2 x i8], ptr getelementptr (i8, ptr @h261_mv_codes, i64 64), i64 %132
  %134 = getelementptr inbounds [2 x i8], ptr %133, i64 0, i64 1
  store i8 %130, ptr %134, align 1, !tbaa !100
  %135 = load i64, ptr %9, align 8, !tbaa !117
  %136 = sub nsw i64 32, %135
  %137 = getelementptr inbounds [2 x i8], ptr getelementptr (i8, ptr @h261_mv_codes, i64 64), i64 %136
  %138 = getelementptr inbounds [2 x i8], ptr %137, i64 0, i64 1
  store i8 %130, ptr %138, align 1, !tbaa !100
  %139 = load i64, ptr %9, align 8, !tbaa !117
  %140 = icmp eq i64 %139, 16
  br i1 %140, label %141, label %142

141:                                              ; preds = %107
  call void @llvm.lifetime.end.p0(i64 8, ptr %9) #8
  br label %174

142:                                              ; preds = %107
  %143 = load i64, ptr %9, align 8, !tbaa !117
  %144 = getelementptr inbounds [17 x [2 x i8]], ptr @ff_h261_mv_tab, i64 0, i64 %143
  %145 = getelementptr inbounds [2 x i8], ptr %144, i64 0, i64 0
  %146 = load i8, ptr %145, align 2, !tbaa !100
  %147 = zext i8 %146 to i32
  %148 = shl i32 %147, 1
  %149 = trunc i32 %148 to i8
  %150 = load i64, ptr %9, align 8, !tbaa !117
  %151 = sub nsw i64 %150, 32
  %152 = getelementptr inbounds [2 x i8], ptr getelementptr (i8, ptr @h261_mv_codes, i64 64), i64 %151
  %153 = getelementptr inbounds [2 x i8], ptr %152, i64 0, i64 0
  store i8 %149, ptr %153, align 1, !tbaa !100
  %154 = load i64, ptr %9, align 8, !tbaa !117
  %155 = getelementptr inbounds [2 x i8], ptr getelementptr (i8, ptr @h261_mv_codes, i64 64), i64 %154
  %156 = getelementptr inbounds [2 x i8], ptr %155, i64 0, i64 0
  store i8 %149, ptr %156, align 1, !tbaa !100
  %157 = load i64, ptr %9, align 8, !tbaa !117
  %158 = getelementptr inbounds [17 x [2 x i8]], ptr @ff_h261_mv_tab, i64 0, i64 %157
  %159 = getelementptr inbounds [2 x i8], ptr %158, i64 0, i64 1
  %160 = load i8, ptr %159, align 1, !tbaa !100
  %161 = zext i8 %160 to i32
  %162 = add nsw i32 %161, 1
  %163 = trunc i32 %162 to i8
  %164 = load i64, ptr %9, align 8, !tbaa !117
  %165 = sub nsw i64 %164, 32
  %166 = getelementptr inbounds [2 x i8], ptr getelementptr (i8, ptr @h261_mv_codes, i64 64), i64 %165
  %167 = getelementptr inbounds [2 x i8], ptr %166, i64 0, i64 1
  store i8 %163, ptr %167, align 1, !tbaa !100
  %168 = load i64, ptr %9, align 8, !tbaa !117
  %169 = getelementptr inbounds [2 x i8], ptr getelementptr (i8, ptr @h261_mv_codes, i64 64), i64 %168
  %170 = getelementptr inbounds [2 x i8], ptr %169, i64 0, i64 1
  store i8 %163, ptr %170, align 1, !tbaa !100
  br label %171

171:                                              ; preds = %142
  %172 = load i64, ptr %9, align 8, !tbaa !117
  %173 = add nsw i64 %172, 1
  store i64 %173, ptr %9, align 8, !tbaa !117
  br label %107

174:                                              ; preds = %141
  store i8 1, ptr getelementptr (i8, ptr @h261_mv_codes, i64 64), align 1, !tbaa !100
  store i8 1, ptr getelementptr inbounds ([2 x i8], ptr getelementptr (i8, ptr @h261_mv_codes, i64 64), i64 0, i64 1), align 1, !tbaa !100
  call void @llvm.lifetime.end.p0(i64 8, ptr %1) #8
  ret void
}