; Function Attrs: cold nofree norecurse nosync nounwind optsize memory(write, argmem: none, inaccessiblemem: none) uwtable
define internal void @h261_encode_init_static() #3 {
  tail call void @llvm.memset.p0.i64(ptr noundef nonnull align 16 dereferenceable(8192) @uni_h261_rl_len, i8 20, i64 8192, i1 false)
  tail call void @llvm.memset.p0.i64(ptr noundef nonnull align 16 dereferenceable(8192) @uni_h261_rl_len_last, i8 22, i64 8192, i1 false)
  br label %6

.preheader:                                       ; preds = %6
  %1 = load i8, ptr getelementptr inbounds nuw (i8, ptr @ff_h261_mv_tab, i64 2), align 2, !tbaa !62
  %2 = shl i8 %1, 1
  %3 = or disjoint i8 %2, 1
  store i8 %3, ptr getelementptr inbounds nuw (i8, ptr @h261_mv_codes, i64 62), align 2, !tbaa !62
  store i8 %3, ptr getelementptr inbounds nuw (i8, ptr @h261_mv_codes, i64 126), align 2, !tbaa !62
  %4 = load i8, ptr getelementptr inbounds nuw (i8, ptr @ff_h261_mv_tab, i64 3), align 1, !tbaa !62
  %5 = add i8 %4, 1
  store i8 %5, ptr getelementptr inbounds nuw (i8, ptr @h261_mv_codes, i64 63), align 1, !tbaa !62
  store i8 %5, ptr getelementptr inbounds nuw (i8, ptr @h261_mv_codes, i64 127), align 1, !tbaa !62
  br label %41

6:                                                ; preds = %0, %6
  %.04344 = phi i64 [ 1, %0 ], [ %39, %6 ]
  %7 = getelementptr inbounds nuw [64 x i8], ptr @ff_h261_tcoeff_run, i64 0, i64 %.04344
  %8 = load i8, ptr %7, align 1, !tbaa !62
  %9 = sext i8 %8 to i32
  %10 = getelementptr inbounds nuw [64 x i8], ptr @ff_h261_tcoeff_level, i64 0, i64 %.04344
  %11 = load i8, ptr %10, align 1, !tbaa !62
  %12 = sext i8 %11 to i32
  %13 = getelementptr inbounds nuw [65 x [2 x i16]], ptr @ff_h261_tcoeff_vlc, i64 0, i64 %.04344
  %14 = getelementptr inbounds nuw i8, ptr %13, i64 2
  %15 = load i16, ptr %14, align 2, !tbaa !103
  %16 = trunc i16 %15 to i8
  %17 = load i16, ptr %13, align 4, !tbaa !103
  %18 = zext i32 %9 to i64
  %19 = add nsw i32 %12, 15
  %20 = zext i32 %19 to i64
  %21 = getelementptr inbounds nuw [27 x [32 x %struct.VLCLUT]], ptr @vlc_lut, i64 0, i64 %18, i64 %20
  %22 = add i8 %16, 1
  %23 = shl i16 %17, 1
  store i8 %22, ptr %21, align 4, !tbaa !62
  %.sroa.215.0..sroa_idx = getelementptr inbounds nuw i8, ptr %21, i64 1
  store i8 0, ptr %.sroa.215.0..sroa_idx, align 1
  %.sroa.316.0..sroa_idx = getelementptr inbounds nuw i8, ptr %21, i64 2
  store i16 %23, ptr %.sroa.316.0..sroa_idx, align 2, !tbaa !103
  %24 = sub nsw i32 15, %12
  %25 = zext i32 %24 to i64
  %26 = getelementptr inbounds nuw [27 x [32 x %struct.VLCLUT]], ptr @vlc_lut, i64 0, i64 %18, i64 %25
  %27 = or disjoint i16 %23, 1
  store i8 %22, ptr %26, align 4, !tbaa !62
  %.sroa.2.0..sroa_idx = getelementptr inbounds nuw i8, ptr %26, i64 1
  store i8 0, ptr %.sroa.2.0..sroa_idx, align 1
  %.sroa.3.0..sroa_idx = getelementptr inbounds nuw i8, ptr %26, i64 2
  store i16 %27, ptr %.sroa.3.0..sroa_idx, align 2, !tbaa !103
  %28 = shl nsw i32 %9, 7
  %29 = add nsw i32 %12, 64
  %30 = add nsw i32 %29, %28
  %31 = zext i32 %30 to i64
  %32 = getelementptr inbounds nuw [8192 x i8], ptr @uni_h261_rl_len, i64 0, i64 %31
  store i8 %22, ptr %32, align 1, !tbaa !62
  %reass.sub46 = sub nsw i32 %28, %12
  %33 = add nsw i32 %reass.sub46, 64
  %34 = zext i32 %33 to i64
  %35 = getelementptr inbounds nuw [8192 x i8], ptr @uni_h261_rl_len, i64 0, i64 %34
  store i8 %22, ptr %35, align 1, !tbaa !62
  %36 = add i8 %16, 3
  %37 = getelementptr inbounds nuw [8192 x i8], ptr @uni_h261_rl_len_last, i64 0, i64 %31
  store i8 %36, ptr %37, align 1, !tbaa !62
  %38 = getelementptr inbounds nuw [8192 x i8], ptr @uni_h261_rl_len_last, i64 0, i64 %34
  store i8 %36, ptr %38, align 1, !tbaa !62
  %39 = add nuw nsw i64 %.04344, 1
  %exitcond.not = icmp eq i64 %39, 64
  br i1 %exitcond.not, label %.preheader, label %6, !llvm.loop !109

40:                                               ; preds = %41
  store i8 1, ptr getelementptr inbounds nuw (i8, ptr @h261_mv_codes, i64 64), align 16, !tbaa !62
  store i8 1, ptr getelementptr inbounds nuw (i8, ptr @h261_mv_codes, i64 65), align 1, !tbaa !62
  ret void

41:                                               ; preds = %.preheader, %41
  %42 = phi i8 [ %5, %.preheader ], [ %59, %41 ]
  %43 = phi i8 [ %2, %.preheader ], [ %51, %41 ]
  %.045 = phi i64 [ 1, %.preheader ], [ %48, %41 ]
  %44 = getelementptr [2 x i8], ptr @h261_mv_codes, i64 %.045
  store i8 %43, ptr %44, align 2, !tbaa !62
  %45 = getelementptr inbounds nuw [2 x i8], ptr getelementptr inbounds nuw (i8, ptr @h261_mv_codes, i64 64), i64 %.045
  store i8 %43, ptr %45, align 2, !tbaa !62
  %46 = getelementptr inbounds nuw i8, ptr %44, i64 1
  store i8 %42, ptr %46, align 1, !tbaa !62
  %47 = getelementptr inbounds nuw i8, ptr %45, i64 1
  store i8 %42, ptr %47, align 1, !tbaa !62
  %48 = add nuw nsw i64 %.045, 1
  %49 = getelementptr inbounds nuw [17 x [2 x i8]], ptr @ff_h261_mv_tab, i64 0, i64 %48
  %50 = load i8, ptr %49, align 2, !tbaa !62
  %51 = shl i8 %50, 1
  %52 = or disjoint i8 %51, 1
  %53 = xor i64 %.045, -1
  %54 = getelementptr inbounds [2 x i8], ptr getelementptr inbounds nuw (i8, ptr @h261_mv_codes, i64 64), i64 %53
  store i8 %52, ptr %54, align 2, !tbaa !62
  %55 = sub nuw nsw i64 31, %.045
  %56 = getelementptr inbounds nuw [2 x i8], ptr getelementptr inbounds nuw (i8, ptr @h261_mv_codes, i64 64), i64 %55
  store i8 %52, ptr %56, align 2, !tbaa !62
  %57 = getelementptr inbounds nuw i8, ptr %49, i64 1
  %58 = load i8, ptr %57, align 1, !tbaa !62
  %59 = add i8 %58, 1
  %60 = getelementptr inbounds nuw i8, ptr %54, i64 1
  store i8 %59, ptr %60, align 1, !tbaa !62
  %61 = getelementptr inbounds nuw i8, ptr %56, i64 1
  store i8 %59, ptr %61, align 1, !tbaa !62
  %62 = icmp eq i64 %48, 16
  br i1 %62, label %40, label %41
}